Microchip MPLAB XC8 Compiler V2.40

Linker command line:

-W-3 --edf=/opt/microchip/xc8/v2.40/pic/dat/20220703182018_en.msgs -cn \
  -h+dist/default/debug/Lamp.X.debug.sym \
  --cmf=dist/default/debug/Lamp.X.debug.cmf -z -Q16F886 -o/tmp/xcXcFfIjo \
  --defsym=__MPLAB_BUILD=1 --fixupoverflow=error \
  -Mdist/default/debug/Lamp.X.debug.map --md=/tmp/xcXPOAAaC.dat -E1 \
  -ver=XC8 Compiler --acfsm=1493 -ACODE=00h-07FFhx4 -ASTRCODE=00h-01FFFh \
  -ASTRING=00h-0FFhx32 -ACONST=00h-0FFhx32 -AENTRY=00h-0FFhx32 \
  -ACOMMON=070h-07Fh -ABANK0=020h-06Fh -ABANK1=0A0h-0EFh \
  -ABANK2=0110h-016Fh -ABANK3=0190h-01EFh \
  -ARAM=020h-06Fh,0A0h-0EFh,0110h-016Fh,0190h-01EFh \
  -AABS1=020h-07Fh,0A0h-0EFh,0110h-016Fh,0190h-01EFh -ASFR0=00h-01Fh \
  -ASFR1=080h-09Fh -ASFR2=0100h-010Fh -ASFR3=0180h-018Fh \
  -ACONFIG=02007h-02008h -DCONFIG=2 -AIDLOC=02000h-02003h -DIDLOC=2 \
  -AEEDATA=00h-0FFh/02100h -peeprom_data=EEDATA -DEEDATA=2 -DCODE=2 \
  -DSTRCODE=2 -DSTRING=2 -DCONST=2 -DENTRY=2 \
  -preset_vec=00h,intentry=04h,init,end_init -ppowerup=CODE -pcinit=CODE \
  -pfunctab=ENTRY -k /tmp/xcXmJhEBN.o dist/default/debug/Lamp.X.debug.o 

Object code version is 3.11

Machine type is 16F886



                Name                               Link     Load   Length Selector   Space Scale
/tmp/xcXmJhEBN.o
                end_init                             10       10        3        8       0
                reset_vec                             0        0        3        0       0
                config                             2007     2007        2        0       4
                idloc                              2000     2000        4        0       5
dist/default/debug/Lamp.X.debug.o
                cinit                                13       13       14        8       0
                functab                              27       27        F       4E       0
                intentry                              4        4        C        8       0
                config                             2007     2007        2        0       4
                idloc                              2000     2000        4        0       5
                text21                              310      310        2       6C       0
                text20                              2F7      2F7        7       6C       0
                text19                              2F0      2F0        7       6C       0
                text18                              2E9      2E9        7       6C       0
                text17                              2E2      2E2        7       6C       0
                text16                              30A      30A        4       6C       0
                text15                              10A      10A       79       6C       0
                text14                              2A4      2A4       15       6C       0
                text13                              183      183       2D       6C       0
                text12                              24C      24C       23       6C       0
                text11                              28D      28D       17       6C       0
                text10                              26F      26F       1E       6C       0
                text9                               229      229       23       6C       0
                text8                               2B9      2B9       14       6C       0
                text7                               2CD      2CD        D       6C       0
                text6                               30E      30E        2       6C       0
                text5                               304      304        6       6C       0
                text4                               2FE      2FE        6       6C       0
                text3                               1D9      1D9       29       6C       0
                text2                               1B0      1B0       29       6C       0
                text1                               202      202       27       6C       0
                maintext                             36       36       D4       6C       0
                cstackBANK0                          4E       4E        F       20       1
                cstackCOMMON                         70       70        C       70       1
                clrtext                             2DA      2DA        8       6C       0
                bssBANK0                             20       20       2E       20       1
                dataCOMMON                           7D       7D        1       70       1
                bssCOMMON                            7C       7C        1       70       1
                idataCOMMON                         312      312        1       6C       0

TOTAL           Name                               Link     Load   Length     Space
        CLASS   CODE           
                end_init                             10       10        3         0
                cinit                                13       13       14         0
                intentry                              4        4        C         0
                reset_vec                             0        0        3         0
                text21                              310      310        2         0
                text20                              2F7      2F7        7         0
                text19                              2F0      2F0        7         0
                text18                              2E9      2E9        7         0
                text17                              2E2      2E2        7         0
                text16                              30A      30A        4         0
                text15                              10A      10A       79         0
                text14                              2A4      2A4       15         0
                text13                              183      183       2D         0
                text12                              24C      24C       23         0
                text11                              28D      28D       17         0
                text10                              26F      26F       1E         0
                text9                               229      229       23         0
                text8                               2B9      2B9       14         0
                text7                               2CD      2CD        D         0
                text6                               30E      30E        2         0
                text5                               304      304        6         0
                text4                               2FE      2FE        6         0
                text3                               1D9      1D9       29         0
                text2                               1B0      1B0       29         0
                text1                               202      202       27         0
                maintext                             36       36       D4         0
                clrtext                             2DA      2DA        8         0
                idataCOMMON                         312      312        1         0

        CLASS   STRCODE        

        CLASS   STRING         

        CLASS   CONST          

        CLASS   ENTRY          
                functab                              27       27        F         0

        CLASS   COMMON         
                cstackCOMMON                         70       70        C         1
                dataCOMMON                           7D       7D        1         1
                bssCOMMON                            7C       7C        1         1

        CLASS   BANK0          
                cstackBANK0                          4E       4E        F         1
                bssBANK0                             20       20       2E         1

        CLASS   BANK1          

        CLASS   BANK2          

        CLASS   BANK3          

        CLASS   RAM            

        CLASS   ABS1           
                abs_s1                               7E       7E        2         1

        CLASS   SFR0           

        CLASS   SFR1           

        CLASS   SFR2           

        CLASS   SFR3           

        CLASS   CONFIG         
                config                             2007     2007        2         4

        CLASS   IDLOC          
                idloc                              2000     2000        4         5

        CLASS   EEDATA         

        CLASS   STACK          



SEGMENTS        Name                           Load    Length   Top    Selector   Space  Class     Delta

                bssBANK0                       000020  00003D  00005D        20       1  BANK0       1
                reset_vec                      000000  000003  000003         0       0  CODE        2
                maintext                       000036  0002DD  000313        6C       0  CODE        2
                intentry                       000004  000023  000027         8       0  CODE        2
                cstackCOMMON                   000070  00000E  00007E        70       1  COMMON      1
                functab                        000027  00000F  000036        4E       0  ENTRY       2


UNUSED ADDRESS RANGES

        Name                Unused          Largest block    Delta
        BANK0            005D-006F             13           1
        BANK1            00A0-00EF             50           1
        BANK2            0110-016F             60           1
        BANK3            0190-01EF             60           1
        CODE             0003-0003              1           2
                         0313-1FFF            800
        CONST            0003-0003              1           2
                         0313-1FFF            100
        EEDATA           2100-21FF            100           2
        ENTRY            0003-0003              1           2
                         0313-1FFF            100
        RAM              005D-006F             13           1
                         00A0-00EF             50
                         0110-016F             60
                         0190-01EF             60
        SFR0             0000-001F             20           1
        SFR1             0080-009F             20           1
        SFR2             0100-010F             10           1
        SFR3             0180-018F             10           1
        STRCODE          0003-0003              1           2
                         0313-1FFF           1CED
        STRING           0003-0003              1           2
                         0313-1FFF            100

                                  Symbol Table

?_create_task                         cstackBANK0  004E
?_taskData_get_MaxNoise               cstackCOMMON 0070
ISR_ADC_lecture_ready@lecture         cstackCOMMON 0076
ISR_periodic_interrupt@i              cstackCOMMON 0077
ISR_periodic_interrupt@task_amount    cstackCOMMON 0074
ISR_periodic_interrupt@task_array     cstackCOMMON 0076
_ADCON0bits                           (abs)        001F
_ADCON1bits                           (abs)        009F
_ADRESH                               (abs)        001E
_ADRESL                               (abs)        009E
_ANSELbits                            (abs)        0188
_INTCONbits                           (abs)        000B
_ISR_ADC_lecture_ready                text15       010A
_ISR_periodic_interrupt               text13       0183
_MAIN_ISR                             text12       024C
_OPTION_REGbits                       (abs)        0081
_PIE1bits                             (abs)        008C
_PIR1bits                             (abs)        000C
_T1CONbits                            (abs)        0010
_TMR0                                 (abs)        0001
_TMR1H                                (abs)        000F
_TMR1L                                (abs)        000E
_TRISAbits                            (abs)        0085
__Habs1                               abs1         006C
__Hbank0                              bank0        006C
__Hbank1                              bank1        006C
__Hbank2                              bank2        006C
__Hbank3                              bank3        006C
__HbssBANK0                           bssBANK0     006C
__HbssCOMMON                          bssCOMMON    006C
__Hcinit                              cinit        0027
__Hclrtext                            clrtext      006C
__Hcode                               code         006C
__Hcommon                             common       006C
__Hconfig                             config       2009
__HcstackBANK0                        cstackBANK0  006C
__HcstackCOMMON                       cstackCOMMON 006C
__HdataCOMMON                         dataCOMMON   006C
__Heeprom_data                        eeprom_data  0000
__Hend_init                           end_init     0013
__Hfunctab                            functab      0036
__HidataCOMMON                        idataCOMMON  006C
__Hidloc                              idloc        2004
__Hinit                               init         0010
__Hintentry                           intentry     0010
__Hmaintext                           maintext     006C
__Hpowerup                            powerup      0000
__Hram                                ram          006C
__Hreset_vec                          reset_vec    0003
__Hsfr0                               sfr0         006C
__Hsfr1                               sfr1         006C
__Hsfr2                               sfr2         006C
__Hsfr3                               sfr3         006C
__Hspace_0                            (abs)        0313
__Hspace_1                            (abs)        007E
__Hspace_2                            (abs)        006C
__Hspace_3                            (abs)        0000
__Hspace_4                            (abs)        4010
__Hstack                              stack        006C
__Hstrings                            strings      006C
__Htext                               text         006C
__Labs1                               abs1         006C
__Lbank0                              bank0        006C
__Lbank1                              bank1        006C
__Lbank2                              bank2        006C
__Lbank3                              bank3        006C
__LbssBANK0                           bssBANK0     006C
__LbssCOMMON                          bssCOMMON    006C
__Lcinit                              cinit        0013
__Lclrtext                            clrtext      006C
__Lcode                               code         006C
__Lcommon                             common       006C
__Lconfig                             config       0000
__LcstackBANK0                        cstackBANK0  006C
__LcstackCOMMON                       cstackCOMMON 006C
__LdataCOMMON                         dataCOMMON   006C
__Leeprom_data                        eeprom_data  0000
__Lend_init                           end_init     0010
__Lfunctab                            functab      0027
__LidataCOMMON                        idataCOMMON  006C
__Lidloc                              idloc        0000
__Linit                               init         0010
__Lintentry                           intentry     0004
__Lmaintext                           maintext     006C
__Lpowerup                            powerup      0000
__Lram                                ram          006C
__Lreset_vec                          reset_vec    0000
__Lsfr0                               sfr0         006C
__Lsfr1                               sfr1         006C
__Lsfr2                               sfr2         006C
__Lsfr3                               sfr3         006C
__Lspace_0                            (abs)        0000
__Lspace_1                            (abs)        0000
__Lspace_2                            (abs)        0000
__Lspace_3                            (abs)        0000
__Lspace_4                            (abs)        0000
__Lstack                              stack        006C
__Lstrings                            strings      006C
__Ltext                               text         006C
__S0                                  (abs)        0313
__S1                                  (abs)        007E
__S3                                  (abs)        0000
___bmul                               text11       028D
___bmul@multiplicand                  cstackBANK0  004E
___bmul@multiplier                    cstackBANK0  0051
___bmul@product                       cstackBANK0  0050
___int_sp                             stack        006C
___latbits                            (abs)        0002
___sp                                 stack        006C
___stackhi                            (abs)        0000
___stacklo                            (abs)        0000
__end_of_ISR_ADC_lecture_ready        text15       0183
__end_of_ISR_periodic_interrupt       text13       01B0
__end_of_MAIN_ISR                     text12       026F
__end_of___bmul                       text11       02A4
__end_of__fptable                     functab      0036
__end_of__initialization              cinit        0023
__end_of_create_task                  text10       028D
__end_of_initADCmodule                text9        024C
__end_of_initHardware                 text7        02DA
__end_of_initTIMER1module             text8        02CD
__end_of_main                         maintext     010A
__end_of_readHumidity                 text1        0229
__end_of_readNoise                    text2        01D9
__end_of_readTemperature              text3        0202
__end_of_taskData_getADC_ready        text6        0310
__end_of_taskData_get_ADC_CurrentTask text21       0312
__end_of_taskData_get_MaxNoise        text20       02FE
__end_of_taskData_setADC_ready        text5        030A
__end_of_taskData_set_ADC_CurrentTask text4        0304
__end_of_taskData_set_Humidity        text19       02F7
__end_of_taskData_set_MaxNoise        text18       02F0
__end_of_taskData_set_Temperature     text17       02E9
__end_ofi1___bmul                     text14       02B9
__end_ofi1_taskData_setADC_ready      text16       030E
__fptable                             functab      0027
__initialization                      cinit        0013
__pbssBANK0                           bssBANK0     0020
__pbssCOMMON                          bssCOMMON    007C
__pcstackBANK0                        cstackBANK0  004E
__pcstackCOMMON                       cstackCOMMON 0070
__pdataCOMMON                         dataCOMMON   007D
__pfunctab                            functab      0027
__pidataCOMMON                        idataCOMMON  0312
__pintentry                           intentry     0004
__pmaintext                           maintext     0036
__ptext1                              text1        0202
__ptext10                             text10       026F
__ptext11                             text11       028D
__ptext12                             text12       024C
__ptext13                             text13       0183
__ptext14                             text14       02A4
__ptext15                             text15       010A
__ptext16                             text16       030A
__ptext17                             text17       02E2
__ptext18                             text18       02E9
__ptext19                             text19       02F0
__ptext2                              text2        01B0
__ptext20                             text20       02F7
__ptext21                             text21       0310
__ptext3                              text3        01D9
__ptext4                              text4        02FE
__ptext5                              text5        0304
__ptext6                              text6        030E
__ptext7                              text7        02CD
__ptext8                              text8        02B9
__ptext9                              text9        0229
__size_of__fptable                    (abs)        0000
_adc_current_task                     bssCOMMON    007C
_adc_ready                            dataCOMMON   007D
_create_task                          text10       026F
_humidity                             bssBANK0     0024
_initADCmodule                        text9        0229
_initHardware                         text7        02CD
_initTIMER1module                     text8        02B9
_main                                 maintext     0036
_max_noise                            bssBANK0     0020
_readHumidity                         text1        0202
_readNoise                            text2        01B0
_readTemperature                      text3        01D9
_taskData_getADC_ready                text6        030E
_taskData_get_ADC_CurrentTask         text21       0310
_taskData_get_MaxNoise                text20       02F7
_taskData_setADC_ready                text5        0304
_taskData_set_ADC_CurrentTask         text4        02FE
_taskData_set_Humidity                text19       02F0
_taskData_set_MaxNoise                text18       02E9
_taskData_set_Temperature             text17       02E2
_task_array                           bssBANK0     0026
_temperature                          bssBANK0     0022
btemp                                 (abs)        007E
clear_ram0                            clrtext      02DA
create_task@run                       cstackBANK0  0050
create_task@ticks_period              cstackBANK0  004E
create_task@to_create                 cstackBANK0  0053
end_of_initialization                 cinit        0023
fpbase                                functab      002C
fptable                               functab      0027
fptotal                               (abs)        0006
i1___bmul                             text14       02A4
i1___bmul@multiplicand                cstackCOMMON 0070
i1___bmul@multiplier                  cstackCOMMON 0073
i1___bmul@product                     cstackCOMMON 0072
i1_taskData_setADC_ready              text16       030A
i1taskData_setADC_ready@value         cstackCOMMON 0070
interrupt_function                    intentry     0004
intlevel0                             functab      0027
intlevel1                             functab      0027
intlevel2                             functab      0027
intlevel3                             functab      0027
intlevel4                             functab      0027
intlevel5                             functab      0027
main@i                                cstackBANK0  005C
reset_vec                             reset_vec    0000
saved_w                               (abs)        007E
start                                 init         0010
start_initialization                  cinit        0013
taskData_setADC_ready@value           cstackBANK0  004E
taskData_set_ADC_CurrentTask@value    cstackBANK0  004E
taskData_set_Humidity@value           cstackCOMMON 0070
taskData_set_MaxNoise@value           cstackCOMMON 0070
taskData_set_Temperature@value        cstackCOMMON 0070
wtemp0                                (abs)        007E


MODULE INFORMATION

Module		Function		Class		Link	Load	Size
/opt/microchip/xc8/v2.40/pic/sources/c90/common/Umul8.c
		___bmul        		CODE           	028D	0000	23

/opt/microchip/xc8/v2.40/pic/sources/c90/common/Umul8.c estimated size: 23

taskData.c
		_taskData_set_Humidity		CODE           	02F0	0000	7
		_taskData_getADC_ready		CODE           	030E	0000	2
		_taskData_setADC_ready		CODE           	0304	0000	6
		_taskData_get_MaxNoise		CODE           	02F7	0000	7
		_taskData_set_MaxNoise		CODE           	02E9	0000	7
		_taskData_get_ADC_CurrentTask		CODE           	0310	0000	2
		_taskData_set_ADC_CurrentTask		CODE           	02FE	0000	6
		_taskData_set_Temperature		CODE           	02E2	0000	7

taskData.c estimated size: 44

tasks.c
		_readNoise     		CODE           	01B0	0000	41
		_readHumidity  		CODE           	0202	0000	39
		_readTemperature		CODE           	01D9	0000	41

tasks.c estimated size: 121

shared
		__initialization		CODE           	0013	0000	16
		__fptable      		ENTRY          	0027	0000	15
		i1___bmul      		CODE           	02A4	0000	21
		i1_taskData_setADC_ready		CODE           	030A	0000	4

shared estimated size: 56

hardware.c
		_initHardware  		CODE           	02CD	0000	13
		_initTIMER1module		CODE           	02B9	0000	20
		_initADCmodule 		CODE           	0229	0000	35

hardware.c estimated size: 68

ISR.c
		_ISR_ADC_lecture_ready		CODE           	010A	0000	121
		_ISR_periodic_interrupt		CODE           	0183	0000	45

ISR.c estimated size: 166

main.c
		_main          		CODE           	0036	0000	212
		_create_task   		CODE           	026F	0000	30
		_MAIN_ISR      		CODE           	024C	0000	35

main.c estimated size: 277

